(dp1
S'stream_pos'
p2
(dp3
S'comment'
p4
S'position in stream'
p5
sS'set'
p6
I01
sS'name'
p7
g2
sS'get'
p8
I01
sS'max'
p9
NsS'min'
p10
F0
sS'step'
p11
I00
sS'type'
p12
S'pos'
p13
ssS'demuxer'
p14
(dp15
g4
S'demuxer used'
p16
sg6
I00
sg7
g14
sg8
I01
sg9
Nsg10
Nsg11
I00
sg12
S'string'
p17
ssS'sub_scale'
p18
(dp19
g4
S'subtitles font size'
p20
sg6
I01
sg7
g18
sg8
I01
sg9
F100
sg10
F0
sg11
I01
sg12
S'float'
p21
ssS'aspect'
p22
(dp23
g4
S''
sg6
I00
sg7
g22
sg8
I01
sg9
Nsg10
Nsg11
I00
sg12
S'float'
p24
ssS'teletext_format'
p25
(dp26
g4
S'0 - opaque,\n1 - transparent,\n2 - opaque inverted,\n3 - transp. inv.'
p27
sg6
I01
sg7
g25
sg8
I01
sg9
F3
sg10
F0
sg11
I01
sg12
S'int'
p28
ssS'mute'
p29
(dp30
g4
S''
sg6
I01
sg7
g29
sg8
I01
sg9
F1
sg10
F0
sg11
I01
sg12
S'flag'
p31
ssS'sub_forced_only'
p32
(dp33
g4
S''
sg6
I01
sg7
g32
sg8
I01
sg9
F1
sg10
F0
sg11
I01
sg12
S'flag'
p34
ssS'percent_pos'
p35
(dp36
g4
S'position in percent'
p37
sg6
I01
sg7
g35
sg8
I01
sg9
F100
sg10
F0
sg11
I01
sg12
S'int'
p38
ssS'hue'
p39
(dp40
g4
S''
sg6
I01
sg7
g39
sg8
I01
sg9
F100
sg10
F-100
sg11
I01
sg12
S'int'
p41
ssS'tv_saturation'
p42
(dp43
g4
S''
sg6
I01
sg7
g42
sg8
I01
sg9
F100
sg10
F-100
sg11
I01
sg12
S'int'
p44
ssS'height'
p45
(dp46
g4
S'"display" height'
p47
sg6
I00
sg7
g45
sg8
I01
sg9
Nsg10
Nsg11
I00
sg12
S'int'
p48
ssS'channels'
p49
(dp50
g4
S''
sg6
I00
sg7
g49
sg8
I01
sg9
Nsg10
Nsg11
I00
sg12
S'int'
p51
ssS'stream_start'
p52
(dp53
g4
S'start pos in stream'
p54
sg6
I00
sg7
g52
sg8
I01
sg9
Nsg10
F0
sg11
I00
sg12
S'pos'
p55
ssS'stream_length'
p56
(dp57
g4
S'(end - start)'
p58
sg6
I00
sg7
g56
sg8
I01
sg9
Nsg10
F0
sg11
I00
sg12
S'pos'
p59
ssS'switch_audio'
p60
(dp61
g4
S'select audio stream'
p62
sg6
I01
sg7
g60
sg8
I01
sg9
F255
sg10
F-2
sg11
I01
sg12
S'int'
p63
ssS'audio_codec'
p64
(dp65
g4
S''
sg6
I00
sg7
g64
sg8
I01
sg9
Nsg10
Nsg11
I00
sg12
S'string'
p66
ssS'framedropping'
p67
(dp68
g4
S'1 = soft, 2 = hard'
p69
sg6
I01
sg7
g67
sg8
I01
sg9
F2
sg10
F0
sg11
I01
sg12
S'int'
p70
ssS'samplerate'
p71
(dp72
g4
S''
sg6
I00
sg7
g71
sg8
I01
sg9
Nsg10
Nsg11
I00
sg12
S'int'
p73
ssS'speed'
p74
(dp75
g4
S'as -speed'
p76
sg6
I01
sg7
g74
sg8
I01
sg9
F100
sg10
F0.01
sg11
I01
sg12
S'float'
p77
ssS'ontop'
p78
(dp79
g4
S''
sg6
I01
sg7
g78
sg8
I01
sg9
F1
sg10
F0
sg11
I01
sg12
S'flag'
p80
ssS'sub_visibility'
p81
(dp82
g4
S'show/hide subtitles'
p83
sg6
I01
sg7
g81
sg8
I01
sg9
F1
sg10
F0
sg11
I01
sg12
S'flag'
p84
ssS'time_pos'
p85
(dp86
g4
S'position in seconds'
p87
sg6
I01
sg7
g85
sg8
I01
sg9
Nsg10
F0
sg11
I01
sg12
S'time'
p88
ssS'fullscreen'
p89
(dp90
g4
S''
sg6
I01
sg7
g89
sg8
I01
sg9
F1
sg10
F0
sg11
I01
sg12
S'flag'
p91
ssS'sub_delay'
p92
(dp93
g4
S''
sg6
I01
sg7
g92
sg8
I01
sg9
Nsg10
Nsg11
I01
sg12
S'float'
p94
ssS'angle'
p95
(dp96
g4
S'select angle'
p97
sg6
I01
sg7
g95
sg8
I01
sg9
Nsg10
F0
sg11
I01
sg12
S'int'
p98
ssS'sub'
p99
(dp100
g4
S'select subtitle stream'
p101
sg6
I01
sg7
g99
sg8
I01
sg9
Nsg10
F-1
sg11
I01
sg12
S'int'
p102
ssS'width'
p103
(dp104
g4
S'"display" width'
p105
sg6
I00
sg7
g103
sg8
I01
sg9
Nsg10
Nsg11
I00
sg12
S'int'
p106
ssS'border'
p107
(dp108
g4
S''
sg6
I01
sg7
g107
sg8
I01
sg9
F1
sg10
F0
sg11
I01
sg12
S'flag'
p109
ssS'teletext_subpage'
p110
(dp111
g4
S''
sg6
I01
sg7
g110
sg8
I01
sg9
F64
sg10
F0
sg11
I01
sg12
S'int'
p112
ssS'teletext_page'
p113
(dp114
g4
S''
sg6
I01
sg7
g113
sg8
I01
sg9
F799
sg10
F0
sg11
I01
sg12
S'int'
p115
ssS'panscan'
p116
(dp117
g4
S''
sg6
I01
sg7
g116
sg8
I01
sg9
F1
sg10
F0
sg11
I01
sg12
S'float'
p118
ssS'filename'
p119
(dp120
g4
S'file playing wo path'
p121
sg6
I00
sg7
g119
sg8
I01
sg9
Nsg10
Nsg11
I00
sg12
S'string'
p122
ssS'audio_delay'
p123
(dp124
g4
S''
sg6
I01
sg7
g123
sg8
I01
sg9
F100
sg10
F-100
sg11
I01
sg12
S'float'
p125
ssS'teletext_mode'
p126
(dp127
g4
S'0 - off, 1 - on'
p128
sg6
I01
sg7
g126
sg8
I01
sg9
F1
sg10
F0
sg11
I01
sg12
S'flag'
p129
ssS'rootwin'
p130
(dp131
g4
S''
sg6
I01
sg7
g130
sg8
I01
sg9
F1
sg10
F0
sg11
I01
sg12
S'flag'
p132
ssS'vsync'
p133
(dp134
g4
S''
sg6
I01
sg7
g133
sg8
I01
sg9
F1
sg10
F0
sg11
I01
sg12
S'flag'
p135
ssS'sub_vob'
p136
(dp137
g4
S'select vobsubs'
p138
sg6
I01
sg7
g136
sg8
I01
sg9
Nsg10
F-1
sg11
I01
sg12
S'int'
p139
ssS'tv_hue'
p140
(dp141
g4
S''
sg6
I01
sg7
g140
sg8
I01
sg9
F100
sg10
F-100
sg11
I01
sg12
S'int'
p142
ssS'stream_end'
p143
(dp144
g4
S'end pos in stream'
p145
sg6
I00
sg7
g143
sg8
I01
sg9
Nsg10
F0
sg11
I00
sg12
S'pos'
p146
ssS'contrast'
p147
(dp148
g4
S''
sg6
I01
sg7
g147
sg8
I01
sg9
F100
sg10
F-100
sg11
I01
sg12
S'int'
p149
ssS'metadata'
p150
(dp151
g4
S'list of metadata key/value'
p152
sg6
I00
sg7
g150
sg8
I01
sg9
Nsg10
Nsg11
I00
sg12
S'str list'
p153
ssS'osdlevel'
p154
(dp155
g4
S'as -osdlevel'
p156
sg6
I01
sg7
g154
sg8
I01
sg9
F3
sg10
F0
sg11
I01
sg12
S'int'
p157
ssS'switch_angle'
p158
(dp159
g4
S'select DVD angle'
p160
sg6
I01
sg7
g158
sg8
I01
sg9
F255
sg10
F-2
sg11
I01
sg12
S'int'
p161
ssS'saturation'
p162
(dp163
g4
S''
sg6
I01
sg7
g162
sg8
I01
sg9
F100
sg10
F-100
sg11
I01
sg12
S'int'
p164
ssS'audio_format'
p165
(dp166
g4
S''
sg6
I00
sg7
g165
sg8
I01
sg9
Nsg10
Nsg11
I00
sg12
S'int'
p167
ssS'fps'
p168
(dp169
g4
S''
sg6
I00
sg7
g168
sg8
I01
sg9
Nsg10
Nsg11
I00
sg12
S'float'
p170
ssS'tv_brightness'
p171
(dp172
g4
S''
sg6
I01
sg7
g171
sg8
I01
sg9
F100
sg10
F-100
sg11
I01
sg12
S'int'
p173
ssS'teletext_half_page'
p174
(dp175
g4
S'0 - off, 1 - top half,\n2- bottom half'
p176
sg6
I01
sg7
g174
sg8
I01
sg9
F2
sg10
F0
sg11
I01
sg12
S'int'
p177
ssS'volume'
p178
(dp179
g4
S'change volume'
p180
sg6
I01
sg7
g178
sg8
I01
sg9
F100
sg10
F0
sg11
I01
sg12
S'float'
p181
ssS'video_format'
p182
(dp183
g4
S''
sg6
I00
sg7
g182
sg8
I01
sg9
Nsg10
Nsg11
I00
sg12
S'int'
p184
ssS'audio_bitrate'
p185
(dp186
g4
S''
sg6
I00
sg7
g185
sg8
I01
sg9
Nsg10
Nsg11
I00
sg12
S'int'
p187
ssS'path'
p188
(dp189
g4
S'file playing'
p190
sg6
I00
sg7
g188
sg8
I01
sg9
Nsg10
Nsg11
I00
sg12
S'string'
p191
ssS'switch_title'
p192
(dp193
g4
S'select DVD title'
p194
sg6
I01
sg7
g192
sg8
I01
sg9
F255
sg10
F-2
sg11
I01
sg12
S'int'
p195
ssS'chapter'
p196
(dp197
g4
S'select chapter'
p198
sg6
I01
sg7
g196
sg8
I01
sg9
Nsg10
F0
sg11
I01
sg12
S'int'
p199
ssS'deinterlace'
p200
(dp201
g4
S''
sg6
I01
sg7
g200
sg8
I01
sg9
F1
sg10
F0
sg11
I01
sg12
S'flag'
p202
ssS'switch_video'
p203
(dp204
g4
S'select video stream'
p205
sg6
I01
sg7
g203
sg8
I01
sg9
F255
sg10
F-2
sg11
I01
sg12
S'int'
p206
ssS'brightness'
p207
(dp208
g4
S''
sg6
I01
sg7
g207
sg8
I01
sg9
F100
sg10
F-100
sg11
I01
sg12
S'int'
p209
ssS'video_bitrate'
p210
(dp211
g4
S''
sg6
I00
sg7
g210
sg8
I01
sg9
Nsg10
Nsg11
I00
sg12
S'int'
p212
ssS'switch_program'
p213
(dp214
g4
S'(see TAB default keybind)'
p215
sg6
I01
sg7
g213
sg8
I01
sg9
F65535
sg10
F-1
sg11
I01
sg12
S'int'
p216
ssS'sub_source'
p217
(dp218
g4
S'select subtitle source'
p219
sg6
I01
sg7
g217
sg8
I01
sg9
F2
sg10
F-1
sg11
I01
sg12
S'int'
p220
ssS'sub_alignment'
p221
(dp222
g4
S'subtitle alignment'
p223
sg6
I01
sg7
g221
sg8
I01
sg9
F2
sg10
F0
sg11
I01
sg12
S'int'
p224
ssS'length'
p225
(dp226
g4
S'length of file in seconds'
p227
sg6
I00
sg7
g225
sg8
I01
sg9
Nsg10
Nsg11
I00
sg12
S'time'
p228
ssS'sub_file'
p229
(dp230
g4
S'select file subtitles'
p231
sg6
I01
sg7
g229
sg8
I01
sg9
Nsg10
F-1
sg11
I01
sg12
S'int'
p232
ssS'tv_contrast'
p233
(dp234
g4
S''
sg6
I01
sg7
g233
sg8
I01
sg9
F100
sg10
F-100
sg11
I01
sg12
S'int'
p235
ssS'gamma'
p236
(dp237
g4
S''
sg6
I01
sg7
g236
sg8
I01
sg9
F100
sg10
F-100
sg11
I01
sg12
S'int'
p238
ssS'sub_demux'
p239
(dp240
g4
S'select subs from demux'
p241
sg6
I01
sg7
g239
sg8
I01
sg9
Nsg10
F-1
sg11
I01
sg12
S'int'
p242
ssS'video_codec'
p243
(dp244
g4
S''
sg6
I00
sg7
g243
sg8
I01
sg9
Nsg10
Nsg11
I00
sg12
S'string'
p245
ssS'balance'
p246
(dp247
g4
S'change audio balance'
p248
sg6
I01
sg7
g246
sg8
I01
sg9
F1
sg10
F-1
sg11
I01
sg12
S'float'
p249
ssS'sub_pos'
p250
(dp251
g4
S'subtitle position'
p252
sg6
I01
sg7
g250
sg8
I01
sg9
F100
sg10
F0
sg11
I01
sg12
S'int'
p253
ssS'loop'
p254
(dp255
g4
S'as -loop'
p256
sg6
I01
sg7
g254
sg8
I01
sg9
Nsg10
F-1
sg11
I01
sg12
S'int'
p257
ss.