(dp1
S'stream_pos'
p2
(dp3
S'comment'
p4
S'position in stream'
p5
sS'function'
p6
c__builtin__
float
p7
sS'set'
p8
I01
sS'name'
p9
g2
sS'get'
p10
I01
sS'max'
p11
NsS'min'
p12
F0
sS'step'
p13
I00
sS'type'
p14
S'pos'
p15
ssS'demuxer'
p16
(dp17
g4
S'demuxer used'
p18
sg6
c__builtin__
str
p19
sg8
I00
sg9
g16
sg10
I01
sg11
Nsg12
Nsg13
I00
sg14
S'string'
p20
ssS'sub_scale'
p21
(dp22
g4
S'subtitles font size'
p23
sg6
g7
sg8
I01
sg9
g21
sg10
I01
sg11
F100
sg12
F0
sg13
I01
sg14
S'float'
p24
ssS'aspect'
p25
(dp26
g4
S''
sg6
g7
sg8
I00
sg9
g25
sg10
I01
sg11
Nsg12
Nsg13
I00
sg14
S'float'
p27
ssS'teletext_format'
p28
(dp29
g4
S'0 - opaque,\n1 - transparent,\n2 - opaque inverted,\n3 - transp. inv.'
p30
sg6
c__builtin__
int
p31
sg8
I01
sg9
g28
sg10
I01
sg11
F3
sg12
F0
sg13
I01
sg14
S'int'
p32
ssS'mute'
p33
(dp34
g4
S''
sg6
c__builtin__
bool
p35
sg8
I01
sg9
g33
sg10
I01
sg11
F1
sg12
F0
sg13
I01
sg14
S'flag'
p36
ssS'sub_forced_only'
p37
(dp38
g4
S''
sg6
g35
sg8
I01
sg9
g37
sg10
I01
sg11
F1
sg12
F0
sg13
I01
sg14
S'flag'
p39
ssS'percent_pos'
p40
(dp41
g4
S'position in percent'
p42
sg6
g31
sg8
I01
sg9
g40
sg10
I01
sg11
F100
sg12
F0
sg13
I01
sg14
S'int'
p43
ssS'hue'
p44
(dp45
g4
S''
sg6
g31
sg8
I01
sg9
g44
sg10
I01
sg11
F100
sg12
F-100
sg13
I01
sg14
S'int'
p46
ssS'tv_saturation'
p47
(dp48
g4
S''
sg6
g31
sg8
I01
sg9
g47
sg10
I01
sg11
F100
sg12
F-100
sg13
I01
sg14
S'int'
p49
ssS'height'
p50
(dp51
g4
S'"display" height'
p52
sg6
g31
sg8
I00
sg9
g50
sg10
I01
sg11
Nsg12
Nsg13
I00
sg14
S'int'
p53
ssS'channels'
p54
(dp55
g4
S''
sg6
g31
sg8
I00
sg9
g54
sg10
I01
sg11
Nsg12
Nsg13
I00
sg14
S'int'
p56
ssS'stream_start'
p57
(dp58
g4
S'start pos in stream'
p59
sg6
g7
sg8
I00
sg9
g57
sg10
I01
sg11
Nsg12
F0
sg13
I00
sg14
S'pos'
p60
ssS'stream_length'
p61
(dp62
g4
S'(end - start)'
p63
sg6
g7
sg8
I00
sg9
g61
sg10
I01
sg11
Nsg12
F0
sg13
I00
sg14
S'pos'
p64
ssS'switch_audio'
p65
(dp66
g4
S'select audio stream'
p67
sg6
g31
sg8
I01
sg9
g65
sg10
I01
sg11
F255
sg12
F-2
sg13
I01
sg14
S'int'
p68
ssS'audio_codec'
p69
(dp70
g4
S''
sg6
g19
sg8
I00
sg9
g69
sg10
I01
sg11
Nsg12
Nsg13
I00
sg14
S'string'
p71
ssS'framedropping'
p72
(dp73
g4
S'1 = soft, 2 = hard'
p74
sg6
g31
sg8
I01
sg9
g72
sg10
I01
sg11
F2
sg12
F0
sg13
I01
sg14
S'int'
p75
ssS'samplerate'
p76
(dp77
g4
S''
sg6
g31
sg8
I00
sg9
g76
sg10
I01
sg11
Nsg12
Nsg13
I00
sg14
S'int'
p78
ssS'speed'
p79
(dp80
g4
S'as -speed'
p81
sg6
g7
sg8
I01
sg9
g79
sg10
I01
sg11
F100
sg12
F0.01
sg13
I01
sg14
S'float'
p82
ssS'ontop'
p83
(dp84
g4
S''
sg6
g35
sg8
I01
sg9
g83
sg10
I01
sg11
F1
sg12
F0
sg13
I01
sg14
S'flag'
p85
ssS'sub_visibility'
p86
(dp87
g4
S'show/hide subtitles'
p88
sg6
g35
sg8
I01
sg9
g86
sg10
I01
sg11
F1
sg12
F0
sg13
I01
sg14
S'flag'
p89
ssS'time_pos'
p90
(dp91
g4
S'position in seconds'
p92
sg6
g31
sg8
I01
sg9
g90
sg10
I01
sg11
Nsg12
F0
sg13
I01
sg14
S'time'
p93
ssS'fullscreen'
p94
(dp95
g4
S''
sg6
g35
sg8
I01
sg9
g94
sg10
I01
sg11
F1
sg12
F0
sg13
I01
sg14
S'flag'
p96
ssS'sub_delay'
p97
(dp98
g4
S''
sg6
g7
sg8
I01
sg9
g97
sg10
I01
sg11
Nsg12
Nsg13
I01
sg14
S'float'
p99
ssS'angle'
p100
(dp101
g4
S'select angle'
p102
sg6
g31
sg8
I01
sg9
g100
sg10
I01
sg11
Nsg12
F0
sg13
I01
sg14
S'int'
p103
ssS'sub'
p104
(dp105
g4
S'select subtitle stream'
p106
sg6
g31
sg8
I01
sg9
g104
sg10
I01
sg11
Nsg12
F-1
sg13
I01
sg14
S'int'
p107
ssS'width'
p108
(dp109
g4
S'"display" width'
p110
sg6
g31
sg8
I00
sg9
g108
sg10
I01
sg11
Nsg12
Nsg13
I00
sg14
S'int'
p111
ssS'border'
p112
(dp113
g4
S''
sg6
g35
sg8
I01
sg9
g112
sg10
I01
sg11
F1
sg12
F0
sg13
I01
sg14
S'flag'
p114
ssS'teletext_subpage'
p115
(dp116
g4
S''
sg6
g31
sg8
I01
sg9
g115
sg10
I01
sg11
F64
sg12
F0
sg13
I01
sg14
S'int'
p117
ssS'teletext_page'
p118
(dp119
g4
S''
sg6
g31
sg8
I01
sg9
g118
sg10
I01
sg11
F799
sg12
F0
sg13
I01
sg14
S'int'
p120
ssS'panscan'
p121
(dp122
g4
S''
sg6
g7
sg8
I01
sg9
g121
sg10
I01
sg11
F1
sg12
F0
sg13
I01
sg14
S'float'
p123
ssS'filename'
p124
(dp125
g4
S'file playing wo path'
p126
sg6
g19
sg8
I00
sg9
g124
sg10
I01
sg11
Nsg12
Nsg13
I00
sg14
S'string'
p127
ssS'audio_delay'
p128
(dp129
g4
S''
sg6
g7
sg8
I01
sg9
g128
sg10
I01
sg11
F100
sg12
F-100
sg13
I01
sg14
S'float'
p130
ssS'teletext_mode'
p131
(dp132
g4
S'0 - off, 1 - on'
p133
sg6
g35
sg8
I01
sg9
g131
sg10
I01
sg11
F1
sg12
F0
sg13
I01
sg14
S'flag'
p134
ssS'rootwin'
p135
(dp136
g4
S''
sg6
g35
sg8
I01
sg9
g135
sg10
I01
sg11
F1
sg12
F0
sg13
I01
sg14
S'flag'
p137
ssS'vsync'
p138
(dp139
g4
S''
sg6
g35
sg8
I01
sg9
g138
sg10
I01
sg11
F1
sg12
F0
sg13
I01
sg14
S'flag'
p140
ssS'sub_vob'
p141
(dp142
g4
S'select vobsubs'
p143
sg6
g31
sg8
I01
sg9
g141
sg10
I01
sg11
Nsg12
F-1
sg13
I01
sg14
S'int'
p144
ssS'tv_hue'
p145
(dp146
g4
S''
sg6
g31
sg8
I01
sg9
g145
sg10
I01
sg11
F100
sg12
F-100
sg13
I01
sg14
S'int'
p147
ssS'stream_end'
p148
(dp149
g4
S'end pos in stream'
p150
sg6
g7
sg8
I00
sg9
g148
sg10
I01
sg11
Nsg12
F0
sg13
I00
sg14
S'pos'
p151
ssS'contrast'
p152
(dp153
g4
S''
sg6
g31
sg8
I01
sg9
g152
sg10
I01
sg11
F100
sg12
F-100
sg13
I01
sg14
S'int'
p154
ssS'metadata'
p155
(dp156
g4
S'list of metadata key/value'
p157
sg6
g19
sg8
I00
sg9
g155
sg10
I01
sg11
Nsg12
Nsg13
I00
sg14
S'str list'
p158
ssS'osdlevel'
p159
(dp160
g4
S'as -osdlevel'
p161
sg6
g31
sg8
I01
sg9
g159
sg10
I01
sg11
F3
sg12
F0
sg13
I01
sg14
S'int'
p162
ssS'switch_angle'
p163
(dp164
g4
S'select DVD angle'
p165
sg6
g31
sg8
I01
sg9
g163
sg10
I01
sg11
F255
sg12
F-2
sg13
I01
sg14
S'int'
p166
ssS'saturation'
p167
(dp168
g4
S''
sg6
g31
sg8
I01
sg9
g167
sg10
I01
sg11
F100
sg12
F-100
sg13
I01
sg14
S'int'
p169
ssS'audio_format'
p170
(dp171
g4
S''
sg6
g31
sg8
I00
sg9
g170
sg10
I01
sg11
Nsg12
Nsg13
I00
sg14
S'int'
p172
ssS'fps'
p173
(dp174
g4
S''
sg6
g7
sg8
I00
sg9
g173
sg10
I01
sg11
Nsg12
Nsg13
I00
sg14
S'float'
p175
ssS'tv_brightness'
p176
(dp177
g4
S''
sg6
g31
sg8
I01
sg9
g176
sg10
I01
sg11
F100
sg12
F-100
sg13
I01
sg14
S'int'
p178
ssS'teletext_half_page'
p179
(dp180
g4
S'0 - off, 1 - top half,\n2- bottom half'
p181
sg6
g31
sg8
I01
sg9
g179
sg10
I01
sg11
F2
sg12
F0
sg13
I01
sg14
S'int'
p182
ssS'volume'
p183
(dp184
g4
S'change volume'
p185
sg6
g7
sg8
I01
sg9
g183
sg10
I01
sg11
F100
sg12
F0
sg13
I01
sg14
S'float'
p186
ssS'video_format'
p187
(dp188
g4
S''
sg6
g31
sg8
I00
sg9
g187
sg10
I01
sg11
Nsg12
Nsg13
I00
sg14
S'int'
p189
ssS'audio_bitrate'
p190
(dp191
g4
S''
sg6
g31
sg8
I00
sg9
g190
sg10
I01
sg11
Nsg12
Nsg13
I00
sg14
S'int'
p192
ssS'path'
p193
(dp194
g4
S'file playing'
p195
sg6
g19
sg8
I00
sg9
g193
sg10
I01
sg11
Nsg12
Nsg13
I00
sg14
S'string'
p196
ssS'switch_title'
p197
(dp198
g4
S'select DVD title'
p199
sg6
g31
sg8
I01
sg9
g197
sg10
I01
sg11
F255
sg12
F-2
sg13
I01
sg14
S'int'
p200
ssS'chapter'
p201
(dp202
g4
S'select chapter'
p203
sg6
g31
sg8
I01
sg9
g201
sg10
I01
sg11
Nsg12
F0
sg13
I01
sg14
S'int'
p204
ssS'deinterlace'
p205
(dp206
g4
S''
sg6
g35
sg8
I01
sg9
g205
sg10
I01
sg11
F1
sg12
F0
sg13
I01
sg14
S'flag'
p207
ssS'switch_video'
p208
(dp209
g4
S'select video stream'
p210
sg6
g31
sg8
I01
sg9
g208
sg10
I01
sg11
F255
sg12
F-2
sg13
I01
sg14
S'int'
p211
ssS'brightness'
p212
(dp213
g4
S''
sg6
g31
sg8
I01
sg9
g212
sg10
I01
sg11
F100
sg12
F-100
sg13
I01
sg14
S'int'
p214
ssS'video_bitrate'
p215
(dp216
g4
S''
sg6
g31
sg8
I00
sg9
g215
sg10
I01
sg11
Nsg12
Nsg13
I00
sg14
S'int'
p217
ssS'switch_program'
p218
(dp219
g4
S'(see TAB default keybind)'
p220
sg6
g31
sg8
I01
sg9
g218
sg10
I01
sg11
F65535
sg12
F-1
sg13
I01
sg14
S'int'
p221
ssS'sub_source'
p222
(dp223
g4
S'select subtitle source'
p224
sg6
g31
sg8
I01
sg9
g222
sg10
I01
sg11
F2
sg12
F-1
sg13
I01
sg14
S'int'
p225
ssS'sub_alignment'
p226
(dp227
g4
S'subtitle alignment'
p228
sg6
g31
sg8
I01
sg9
g226
sg10
I01
sg11
F2
sg12
F0
sg13
I01
sg14
S'int'
p229
ssS'length'
p230
(dp231
g4
S'length of file in seconds'
p232
sg6
g31
sg8
I00
sg9
g230
sg10
I01
sg11
Nsg12
Nsg13
I00
sg14
S'time'
p233
ssS'sub_file'
p234
(dp235
g4
S'select file subtitles'
p236
sg6
g31
sg8
I01
sg9
g234
sg10
I01
sg11
Nsg12
F-1
sg13
I01
sg14
S'int'
p237
ssS'tv_contrast'
p238
(dp239
g4
S''
sg6
g31
sg8
I01
sg9
g238
sg10
I01
sg11
F100
sg12
F-100
sg13
I01
sg14
S'int'
p240
ssS'gamma'
p241
(dp242
g4
S''
sg6
g31
sg8
I01
sg9
g241
sg10
I01
sg11
F100
sg12
F-100
sg13
I01
sg14
S'int'
p243
ssS'sub_demux'
p244
(dp245
g4
S'select subs from demux'
p246
sg6
g31
sg8
I01
sg9
g244
sg10
I01
sg11
Nsg12
F-1
sg13
I01
sg14
S'int'
p247
ssS'video_codec'
p248
(dp249
g4
S''
sg6
g19
sg8
I00
sg9
g248
sg10
I01
sg11
Nsg12
Nsg13
I00
sg14
S'string'
p250
ssS'balance'
p251
(dp252
g4
S'change audio balance'
p253
sg6
g7
sg8
I01
sg9
g251
sg10
I01
sg11
F1
sg12
F-1
sg13
I01
sg14
S'float'
p254
ssS'sub_pos'
p255
(dp256
g4
S'subtitle position'
p257
sg6
g31
sg8
I01
sg9
g255
sg10
I01
sg11
F100
sg12
F0
sg13
I01
sg14
S'int'
p258
ssS'loop'
p259
(dp260
g4
S'as -loop'
p261
sg6
g31
sg8
I01
sg9
g259
sg10
I01
sg11
Nsg12
F-1
sg13
I01
sg14
S'int'
p262
ss.